; Function Attrs: nounwind uwtable
define dso_local range(i32 -12, 16) i32 @SPI_register_relation(ptr noundef %0) local_unnamed_addr #0 {
  %2 = icmp eq ptr %0, null
  br i1 %2, label %19, label %3

3:                                                ; preds = %1
  %4 = load ptr, ptr %0, align 8
  %5 = icmp eq ptr %4, null
  br i1 %5, label %19, label %6

6:                                                ; preds = %3
  %7 = load ptr, ptr @_SPI_current, align 8
  %.not13 = icmp eq ptr %7, null
  br i1 %.not13, label %19, label %8

8:                                                ; preds = %6
  %9 = getelementptr inbounds nuw i8, ptr %7, i64 64
  %10 = load ptr, ptr %9, align 8
  %11 = icmp eq ptr %10, null
  br i1 %11, label %_SPI_find_ENR_by_name.exit.thread.thread, label %_SPI_find_ENR_by_name.exit

_SPI_find_ENR_by_name.exit:                       ; preds = %8
  %12 = tail call ptr @get_ENR(ptr noundef nonnull %10, ptr noundef nonnull %4) #15
  %.not = icmp eq ptr %12, null
  br i1 %.not, label %_SPI_find_ENR_by_name.exit.thread, label %19

_SPI_find_ENR_by_name.exit.thread:                ; preds = %_SPI_find_ENR_by_name.exit
  %.pre = load ptr, ptr @_SPI_current, align 8
  %.phi.trans.insert = getelementptr inbounds nuw i8, ptr %.pre, i64 64
  %.pre14 = load ptr, ptr %.phi.trans.insert, align 8
  %13 = icmp eq ptr %.pre14, null
  br i1 %13, label %_SPI_find_ENR_by_name.exit.thread.thread, label %17

_SPI_find_ENR_by_name.exit.thread.thread:         ; preds = %8, %_SPI_find_ENR_by_name.exit.thread
  %14 = tail call ptr @create_queryEnv() #15
  %15 = load ptr, ptr @_SPI_current, align 8
  %16 = getelementptr inbounds nuw i8, ptr %15, i64 64
  store ptr %14, ptr %16, align 8
  br label %17

17:                                               ; preds = %_SPI_find_ENR_by_name.exit.thread.thread, %_SPI_find_ENR_by_name.exit.thread
  %18 = phi ptr [ %14, %_SPI_find_ENR_by_name.exit.thread.thread ], [ %.pre14, %_SPI_find_ENR_by_name.exit.thread ]
  tail call void @register_ENR(ptr noundef %18, ptr noundef nonnull %0) #15
  br label %19

19:                                               ; preds = %17, %_SPI_find_ENR_by_name.exit, %6, %1, %3
  %.08 = phi i32 [ -6, %3 ], [ -6, %1 ], [ -4, %6 ], [ 15, %17 ], [ -12, %_SPI_find_ENR_by_name.exit ]
  ret i32 %.08
}